target datalayout = "e-m:e-p270:32:32-p271:32:32-p272:64:64-i64:64-i128:128-f80:128-n8:16:32:64-S128"
target triple = "x86_64-unknown-linux-gnu"

%"class.std::basic_string_view" = type { i64, ptr }
%"class.testing::MatcherDescriberInterface" = type { ptr }
%"class.testing::MatchResultListener" = type { ptr, ptr }
%"struct.std::atomic" = type { %"struct.std::__atomic_base" }
%"struct.std::__atomic_base" = type { i32 }
%"struct.absl::cord_internal::CordRep" = type { i64, %"class.absl::cord_internal::RefcountAndFlags", i8, [3 x i8] }
%"class.absl::cord_internal::RefcountAndFlags" = type { %"struct.std::atomic" }
%"class.absl::cord_internal::(anonymous namespace)::IsNodeMatcherP<int>::gmock_Impl" = type <{ %"class.testing::MatcherInterface.376", i32, [4 x i8] }>
%"class.testing::MatcherInterface.376" = type { %"class.testing::MatcherDescriberInterface" }

@.str.190 = private unnamed_addr constant [27 x i8] c"Expected NODE, got nullptr\00", align 1
@.str.191 = private unnamed_addr constant [20 x i8] c"Expected NODE, got \00", align 1
@.str.192 = private unnamed_addr constant [26 x i8] c"Expected valid NODE, got:\00", align 1
@.str.193 = private unnamed_addr constant [25 x i8] c"Expected NODE of height \00", align 1
@.str.194 = private unnamed_addr constant [7 x i8] c", got \00", align 1

; Function Attrs: noreturn nounwind uwtable
define linkonce_odr hidden void @__clang_call_terminate(ptr noundef %0) #10 comdat {
  %2 = call ptr @__cxa_begin_catch(ptr %0) #3
  call void @_ZSt9terminatev() #23
  unreachable
}

; Function Attrs: mustprogress nounwind uwtable
define linkonce_odr dso_local noundef i64 @_ZNSt11char_traitsIcE6lengthEPKc(ptr noundef %__s) #5 comdat align 2 {
entry:
  %__s.addr = alloca ptr, align 8
  store ptr %__s, ptr %__s.addr, align 8
  %0 = load ptr, ptr %__s.addr, align 8
  %call = call i64 @strlen(ptr noundef %0) #3
  ret i64 %call
}

; Function Attrs: mustprogress uwtable
define linkonce_odr dso_local noundef nonnull align 8 dereferenceable(16) ptr @_ZN7testing19MatchResultListenerlsIA7_cEERS0_RKT_(ptr noundef nonnull align 8 dereferenceable(16) %this, ptr noundef nonnull align 1 dereferenceable(7) %x) #4 comdat align 2 {
entry:
  %this.addr = alloca ptr, align 8
  %x.addr = alloca ptr, align 8
  store ptr %this, ptr %this.addr, align 8
  store ptr %x, ptr %x.addr, align 8
  %this1 = load ptr, ptr %this.addr, align 8
  %stream_ = getelementptr inbounds %"class.testing::MatchResultListener", ptr %this1, i32 0, i32 1
  %0 = load ptr, ptr %stream_, align 8
  %cmp = icmp ne ptr %0, null
  br i1 %cmp, label %if.then, label %if.end

if.then:                                          ; preds = %entry
  %stream_2 = getelementptr inbounds %"class.testing::MatchResultListener", ptr %this1, i32 0, i32 1
  %1 = load ptr, ptr %stream_2, align 8
  %2 = load ptr, ptr %x.addr, align 8
  %arraydecay = getelementptr inbounds [7 x i8], ptr %2, i64 0, i64 0
  %call = call noundef nonnull align 8 dereferenceable(8) ptr @_ZStlsISt11char_traitsIcEERSt13basic_ostreamIcT_ES5_PKc(ptr noundef nonnull align 8 dereferenceable(8) %1, ptr noundef %arraydecay)
  br label %if.end

if.end:                                           ; preds = %if.then, %entry
  ret ptr %this1
}

; Function Attrs: mustprogress uwtable
define linkonce_odr dso_local noundef nonnull align 8 dereferenceable(16) ptr @_ZN7testing19MatchResultListenerlsIA25_cEERS0_RKT_(ptr noundef nonnull align 8 dereferenceable(16) %this, ptr noundef nonnull align 1 dereferenceable(25) %x) #4 comdat align 2 {
entry:
  %this.addr = alloca ptr, align 8
  %x.addr = alloca ptr, align 8
  store ptr %this, ptr %this.addr, align 8
  store ptr %x, ptr %x.addr, align 8
  %this1 = load ptr, ptr %this.addr, align 8
  %stream_ = getelementptr inbounds %"class.testing::MatchResultListener", ptr %this1, i32 0, i32 1
  %0 = load ptr, ptr %stream_, align 8
  %cmp = icmp ne ptr %0, null
  br i1 %cmp, label %if.then, label %if.end

if.then:                                          ; preds = %entry
  %stream_2 = getelementptr inbounds %"class.testing::MatchResultListener", ptr %this1, i32 0, i32 1
  %1 = load ptr, ptr %stream_2, align 8
  %2 = load ptr, ptr %x.addr, align 8
  %arraydecay = getelementptr inbounds [25 x i8], ptr %2, i64 0, i64 0
  %call = call noundef nonnull align 8 dereferenceable(8) ptr @_ZStlsISt11char_traitsIcEERSt13basic_ostreamIcT_ES5_PKc(ptr noundef nonnull align 8 dereferenceable(8) %1, ptr noundef %arraydecay)
  br label %if.end

if.end:                                           ; preds = %if.then, %entry
  ret ptr %this1
}

; Function Attrs: mustprogress nounwind uwtable
define linkonce_odr dso_local noundef i32 @_ZNK4absl13cord_internal12CordRepBtree6heightEv(ptr noundef nonnull align 8 dereferenceable(64) %this) #5 comdat align 2 {
entry:
  %this.addr = alloca ptr, align 8
  store ptr %this, ptr %this.addr, align 8
  %this1 = load ptr, ptr %this.addr, align 8
  %storage = getelementptr inbounds %"struct.absl::cord_internal::CordRep", ptr %this1, i32 0, i32 3
  %arrayidx = getelementptr inbounds [3 x i8], ptr %storage, i64 0, i64 0
  %0 = load i8, ptr %arrayidx, align 1
  %conv = zext i8 %0 to i32
  ret i32 %conv
}

; Function Attrs: mustprogress nounwind uwtable
define linkonce_odr dso_local noundef ptr @_ZN7testing19MatchResultListener6streamEv(ptr noundef nonnull align 8 dereferenceable(16) %this) #5 comdat align 2 {
entry:
  %this.addr = alloca ptr, align 8
  store ptr %this, ptr %this.addr, align 8
  %this1 = load ptr, ptr %this.addr, align 8
  %stream_ = getelementptr inbounds %"class.testing::MatchResultListener", ptr %this1, i32 0, i32 1
  %0 = load ptr, ptr %stream_, align 8
  ret ptr %0
}

; Function Attrs: mustprogress nounwind uwtable
define linkonce_odr dso_local void @_ZNSt17basic_string_viewIcSt11char_traitsIcEEC2EPKc(ptr noundef nonnull align 8 dereferenceable(16) %this, ptr noundef nonnull %__str) unnamed_addr #5 comdat align 2 personality ptr @__gxx_personality_v0 {
entry:
  %this.addr = alloca ptr, align 8
  %__str.addr = alloca ptr, align 8
  store ptr %this, ptr %this.addr, align 8
  store ptr %__str, ptr %__str.addr, align 8
  %this1 = load ptr, ptr %this.addr, align 8
  %_M_len = getelementptr inbounds %"class.std::basic_string_view", ptr %this1, i32 0, i32 0
  %0 = load ptr, ptr %__str.addr, align 8
  %call = invoke noundef i64 @_ZNSt11char_traitsIcE6lengthEPKc(ptr noundef %0)
          to label %invoke.cont unwind label %terminate.lpad

invoke.cont:                                      ; preds = %entry
  store i64 %call, ptr %_M_len, align 8
  %_M_str = getelementptr inbounds %"class.std::basic_string_view", ptr %this1, i32 0, i32 1
  %1 = load ptr, ptr %__str.addr, align 8
  store ptr %1, ptr %_M_str, align 8
  ret void

terminate.lpad:                                   ; preds = %entry
  %2 = landingpad { ptr, i32 }
          catch ptr null
  %3 = extractvalue { ptr, i32 } %2, 0
  call void @__clang_call_terminate(ptr %3) #23
  unreachable
}

; Function Attrs: mustprogress nounwind uwtable
define linkonce_odr dso_local noundef ptr @_ZN4absl13cord_internal7CordRep5btreeEv(ptr noundef nonnull align 8 dereferenceable(16) %this) #5 comdat align 2 {
entry:
  %this.addr = alloca ptr, align 8
  store ptr %this, ptr %this.addr, align 8
  %this1 = load ptr, ptr %this.addr, align 8
  ret ptr %this1
}

; Function Attrs: mustprogress uwtable
define linkonce_odr dso_local noundef nonnull align 8 dereferenceable(16) ptr @_ZN7testing19MatchResultListenerlsIiEERS0_RKT_(ptr noundef nonnull align 8 dereferenceable(16) %this, ptr noundef nonnull align 4 dereferenceable(4) %x) #4 comdat align 2 {
entry:
  %this.addr = alloca ptr, align 8
  %x.addr = alloca ptr, align 8
  store ptr %this, ptr %this.addr, align 8
  store ptr %x, ptr %x.addr, align 8
  %this1 = load ptr, ptr %this.addr, align 8
  %stream_ = getelementptr inbounds %"class.testing::MatchResultListener", ptr %this1, i32 0, i32 1
  %0 = load ptr, ptr %stream_, align 8
  %cmp = icmp ne ptr %0, null
  br i1 %cmp, label %if.then, label %if.end

if.then:                                          ; preds = %entry
  %stream_2 = getelementptr inbounds %"class.testing::MatchResultListener", ptr %this1, i32 0, i32 1
  %1 = load ptr, ptr %stream_2, align 8
  %2 = load ptr, ptr %x.addr, align 8
  %3 = load i32, ptr %2, align 4
  %call = call noundef nonnull align 8 dereferenceable(8) ptr @_ZNSolsEi(ptr noundef nonnull align 8 dereferenceable(8) %1, i32 noundef %3)
  br label %if.end

if.end:                                           ; preds = %if.then, %entry
  ret ptr %this1
}

; Function Attrs: mustprogress uwtable
define linkonce_odr dso_local noundef nonnull align 8 dereferenceable(16) ptr @_ZN7testing19MatchResultListenerlsIA20_cEERS0_RKT_(ptr noundef nonnull align 8 dereferenceable(16) %this, ptr noundef nonnull align 1 dereferenceable(20) %x) #4 comdat align 2 {
entry:
  %this.addr = alloca ptr, align 8
  %x.addr = alloca ptr, align 8
  store ptr %this, ptr %this.addr, align 8
  store ptr %x, ptr %x.addr, align 8
  %this1 = load ptr, ptr %this.addr, align 8
  %stream_ = getelementptr inbounds %"class.testing::MatchResultListener", ptr %this1, i32 0, i32 1
  %0 = load ptr, ptr %stream_, align 8
  %cmp = icmp ne ptr %0, null
  br i1 %cmp, label %if.then, label %if.end

if.then:                                          ; preds = %entry
  %stream_2 = getelementptr inbounds %"class.testing::MatchResultListener", ptr %this1, i32 0, i32 1
  %1 = load ptr, ptr %stream_2, align 8
  %2 = load ptr, ptr %x.addr, align 8
  %arraydecay = getelementptr inbounds [20 x i8], ptr %2, i64 0, i64 0
  %call = call noundef nonnull align 8 dereferenceable(8) ptr @_ZStlsISt11char_traitsIcEERSt13basic_ostreamIcT_ES5_PKc(ptr noundef nonnull align 8 dereferenceable(8) %1, ptr noundef %arraydecay)
  br label %if.end

if.end:                                           ; preds = %if.then, %entry
  ret ptr %this1
}

; Function Attrs: mustprogress uwtable
define linkonce_odr dso_local noundef nonnull align 8 dereferenceable(16) ptr @_ZN7testing19MatchResultListenerlsIA27_cEERS0_RKT_(ptr noundef nonnull align 8 dereferenceable(16) %this, ptr noundef nonnull align 1 dereferenceable(27) %x) #4 comdat align 2 {
entry:
  %this.addr = alloca ptr, align 8
  %x.addr = alloca ptr, align 8
  store ptr %this, ptr %this.addr, align 8
  store ptr %x, ptr %x.addr, align 8
  %this1 = load ptr, ptr %this.addr, align 8
  %stream_ = getelementptr inbounds %"class.testing::MatchResultListener", ptr %this1, i32 0, i32 1
  %0 = load ptr, ptr %stream_, align 8
  %cmp = icmp ne ptr %0, null
  br i1 %cmp, label %if.then, label %if.end

if.then:                                          ; preds = %entry
  %stream_2 = getelementptr inbounds %"class.testing::MatchResultListener", ptr %this1, i32 0, i32 1
  %1 = load ptr, ptr %stream_2, align 8
  %2 = load ptr, ptr %x.addr, align 8
  %arraydecay = getelementptr inbounds [27 x i8], ptr %2, i64 0, i64 0
  %call = call noundef nonnull align 8 dereferenceable(8) ptr @_ZStlsISt11char_traitsIcEERSt13basic_ostreamIcT_ES5_PKc(ptr noundef nonnull align 8 dereferenceable(8) %1, ptr noundef %arraydecay)
  br label %if.end

if.end:                                           ; preds = %if.then, %entry
  ret ptr %this1
}

; Function Attrs: mustprogress uwtable
define internal noundef zeroext i1 @_ZNK4absl13cord_internal12_GLOBAL__N_114IsNodeMatcherPIiE10gmock_ImplIRKPNS0_12CordRepBtreeEE15MatchAndExplainES8_PN7testing19MatchResultListenerE(ptr noundef nonnull align 8 dereferenceable(12) %this, ptr noundef nonnull align 8 dereferenceable(8) %arg, ptr noundef %result_listener) unnamed_addr #4 align 2 {
entry:
  %retval = alloca i1, align 1
  %this.addr = alloca ptr, align 8
  %arg.addr = alloca ptr, align 8
  %result_listener.addr = alloca ptr, align 8
  %ref.tmp = alloca i32, align 4
  %agg.tmp = alloca %"class.std::basic_string_view", align 8
  %ref.tmp23 = alloca i32, align 4
  store ptr %this, ptr %this.addr, align 8
  store ptr %arg, ptr %arg.addr, align 8
  store ptr %result_listener, ptr %result_listener.addr, align 8
  %this1 = load ptr, ptr %this.addr, align 8
  %0 = load ptr, ptr %arg.addr, align 8
  %1 = load ptr, ptr %0, align 8
  %cmp = icmp eq ptr %1, null
  br i1 %cmp, label %if.then, label %if.end

if.then:                                          ; preds = %entry
  %2 = load ptr, ptr %result_listener.addr, align 8
  %call = call noundef nonnull align 8 dereferenceable(16) ptr @_ZN7testing19MatchResultListenerlsIA27_cEERS0_RKT_(ptr noundef nonnull align 8 dereferenceable(16) %2, ptr noundef nonnull align 1 dereferenceable(27) @.str.190)
  store i1 false, ptr %retval, align 1
  br label %return

if.end:                                           ; preds = %entry
  %3 = load ptr, ptr %arg.addr, align 8
  %4 = load ptr, ptr %3, align 8
  %tag = getelementptr inbounds %"struct.absl::cord_internal::CordRep", ptr %4, i32 0, i32 2
  %5 = load i8, ptr %tag, align 4
  %conv = zext i8 %5 to i32
  %cmp2 = icmp ne i32 %conv, 3
  br i1 %cmp2, label %if.then3, label %if.end8

if.then3:                                         ; preds = %if.end
  %6 = load ptr, ptr %result_listener.addr, align 8
  %call4 = call noundef nonnull align 8 dereferenceable(16) ptr @_ZN7testing19MatchResultListenerlsIA20_cEERS0_RKT_(ptr noundef nonnull align 8 dereferenceable(16) %6, ptr noundef nonnull align 1 dereferenceable(20) @.str.191)
  %7 = load ptr, ptr %arg.addr, align 8
  %8 = load ptr, ptr %7, align 8
  %tag5 = getelementptr inbounds %"struct.absl::cord_internal::CordRep", ptr %8, i32 0, i32 2
  %9 = load i8, ptr %tag5, align 4
  %conv6 = zext i8 %9 to i32
  store i32 %conv6, ptr %ref.tmp, align 4
  %call7 = call noundef nonnull align 8 dereferenceable(16) ptr @_ZN7testing19MatchResultListenerlsIiEERS0_RKT_(ptr noundef nonnull align 8 dereferenceable(16) %call4, ptr noundef nonnull align 4 dereferenceable(4) %ref.tmp)
  store i1 false, ptr %retval, align 1
  br label %return

if.end8:                                          ; preds = %if.end
  %10 = load ptr, ptr %arg.addr, align 8
  %11 = load ptr, ptr %10, align 8
  %call9 = call noundef ptr @_ZN4absl13cord_internal7CordRep5btreeEv(ptr noundef nonnull align 8 dereferenceable(16) %11)
  %call10 = call noundef zeroext i1 @_ZN4absl13cord_internal12CordRepBtree7IsValidEPKS1_b(ptr noundef %call9, i1 noundef zeroext false)
  br i1 %call10, label %if.end14, label %if.then11

if.then11:                                        ; preds = %if.end8
  %12 = load ptr, ptr %arg.addr, align 8
  %13 = load ptr, ptr %12, align 8
  %call12 = call noundef ptr @_ZN4absl13cord_internal7CordRep5btreeEv(ptr noundef nonnull align 8 dereferenceable(16) %13)
  call void @_ZNSt17basic_string_viewIcSt11char_traitsIcEEC2EPKc(ptr noundef nonnull align 8 dereferenceable(16) %agg.tmp, ptr noundef @.str.192) #3
  %14 = load ptr, ptr %result_listener.addr, align 8
  %call13 = call noundef ptr @_ZN7testing19MatchResultListener6streamEv(ptr noundef nonnull align 8 dereferenceable(16) %14)
  %15 = getelementptr inbounds { i64, ptr }, ptr %agg.tmp, i32 0, i32 0
  %16 = load i64, ptr %15, align 8
  %17 = getelementptr inbounds { i64, ptr }, ptr %agg.tmp, i32 0, i32 1
  %18 = load ptr, ptr %17, align 8
  call void @_ZN4absl13cord_internal12CordRepBtree4DumpEPKNS0_7CordRepESt17basic_string_viewIcSt11char_traitsIcEEbRSo(ptr noundef %call12, i64 %16, ptr %18, i1 noundef zeroext false, ptr noundef nonnull align 8 dereferenceable(8) %call13)
  store i1 false, ptr %retval, align 1
  br label %return

if.end14:                                         ; preds = %if.end8
  %19 = load ptr, ptr %arg.addr, align 8
  %20 = load ptr, ptr %19, align 8
  %call15 = call noundef ptr @_ZN4absl13cord_internal7CordRep5btreeEv(ptr noundef nonnull align 8 dereferenceable(16) %20)
  %call16 = call noundef i32 @_ZNK4absl13cord_internal12CordRepBtree6heightEv(ptr noundef nonnull align 8 dereferenceable(64) %call15)
  %height = getelementptr inbounds %"class.absl::cord_internal::(anonymous namespace)::IsNodeMatcherP<int>::gmock_Impl", ptr %this1, i32 0, i32 1
  %21 = load i32, ptr %height, align 8
  %cmp17 = icmp ne i32 %call16, %21
  br i1 %cmp17, label %if.then18, label %if.end27

if.then18:                                        ; preds = %if.end14
  %22 = load ptr, ptr %result_listener.addr, align 8
  %call19 = call noundef nonnull align 8 dereferenceable(16) ptr @_ZN7testing19MatchResultListenerlsIA25_cEERS0_RKT_(ptr noundef nonnull align 8 dereferenceable(16) %22, ptr noundef nonnull align 1 dereferenceable(25) @.str.193)
  %height20 = getelementptr inbounds %"class.absl::cord_internal::(anonymous namespace)::IsNodeMatcherP<int>::gmock_Impl", ptr %this1, i32 0, i32 1
  %call21 = call noundef nonnull align 8 dereferenceable(16) ptr @_ZN7testing19MatchResultListenerlsIiEERS0_RKT_(ptr noundef nonnull align 8 dereferenceable(16) %call19, ptr noundef nonnull align 4 dereferenceable(4) %height20)
  %call22 = call noundef nonnull align 8 dereferenceable(16) ptr @_ZN7testing19MatchResultListenerlsIA7_cEERS0_RKT_(ptr noundef nonnull align 8 dereferenceable(16) %call21, ptr noundef nonnull align 1 dereferenceable(7) @.str.194)
  %23 = load ptr, ptr %arg.addr, align 8
  %24 = load ptr, ptr %23, align 8
  %call24 = call noundef ptr @_ZN4absl13cord_internal7CordRep5btreeEv(ptr noundef nonnull align 8 dereferenceable(16) %24)
  %call25 = call noundef i32 @_ZNK4absl13cord_internal12CordRepBtree6heightEv(ptr noundef nonnull align 8 dereferenceable(64) %call24)
  store i32 %call25, ptr %ref.tmp23, align 4
  %call26 = call noundef nonnull align 8 dereferenceable(16) ptr @_ZN7testing19MatchResultListenerlsIiEERS0_RKT_(ptr noundef nonnull align 8 dereferenceable(16) %call22, ptr noundef nonnull align 4 dereferenceable(4) %ref.tmp23)
  store i1 false, ptr %retval, align 1
  br label %return

if.end27:                                         ; preds = %if.end14
  store i1 true, ptr %retval, align 1
  br label %return

return:                                           ; preds = %if.end27, %if.then18, %if.then11, %if.then3, %if.then
  %25 = load i1, ptr %retval, align 1
  ret i1 %25
}