; Function Attrs: mustprogress uwtable
define internal noundef zeroext i1 @_ZNK4absl13cord_internal12_GLOBAL__N_114IsNodeMatcherPIiE10gmock_ImplIRKPNS0_12CordRepBtreeEE15MatchAndExplainES8_PN7testing19MatchResultListenerE(ptr nocapture noundef nonnull readonly align 8 dereferenceable(12) %this, ptr nocapture noundef nonnull readonly align 8 dereferenceable(8) %arg, ptr nocapture noundef readonly %result_listener) unnamed_addr #3 align 2 personality ptr @__gxx_personality_v0 {
entry:
  %0 = load ptr, ptr %arg, align 8
  %cmp = icmp eq ptr %0, null
  br i1 %cmp, label %if.then, label %if.end

if.then:                                          ; preds = %entry
  %stream_.i = getelementptr inbounds i8, ptr %result_listener, i64 8
  %1 = load ptr, ptr %stream_.i, align 8
  %cmp.not.i = icmp eq ptr %1, null
  br i1 %cmp.not.i, label %return, label %if.then.i

if.then.i:                                        ; preds = %if.then
  %call.i = tail call noundef nonnull align 8 dereferenceable(8) ptr @_ZStlsISt11char_traitsIcEERSt13basic_ostreamIcT_ES5_PKc(ptr noundef nonnull align 8 dereferenceable(8) %1, ptr noundef nonnull @.str.190)
  br label %return

if.end:                                           ; preds = %entry
  %tag = getelementptr inbounds i8, ptr %0, i64 12
  %2 = load i8, ptr %tag, align 4
  %cmp2.not = icmp eq i8 %2, 3
  br i1 %cmp2.not, label %if.end8, label %if.then3

if.then3:                                         ; preds = %if.end
  %stream_.i10 = getelementptr inbounds i8, ptr %result_listener, i64 8
  %3 = load ptr, ptr %stream_.i10, align 8
  %cmp.not.i11 = icmp eq ptr %3, null
  br i1 %cmp.not.i11, label %return, label %_ZN7testing19MatchResultListenerlsIA20_cEERS0_RKT_.exit

_ZN7testing19MatchResultListenerlsIA20_cEERS0_RKT_.exit: ; preds = %if.then3
  %call.i13 = tail call noundef nonnull align 8 dereferenceable(8) ptr @_ZStlsISt11char_traitsIcEERSt13basic_ostreamIcT_ES5_PKc(ptr noundef nonnull align 8 dereferenceable(8) %3, ptr noundef nonnull @.str.191)
  %.pr = load ptr, ptr %stream_.i10, align 8
  %cmp.not.i15 = icmp eq ptr %.pr, null
  br i1 %cmp.not.i15, label %return, label %if.then.i16

if.then.i16:                                      ; preds = %_ZN7testing19MatchResultListenerlsIA20_cEERS0_RKT_.exit
  %4 = load ptr, ptr %arg, align 8
  %tag5 = getelementptr inbounds i8, ptr %4, i64 12
  %5 = load i8, ptr %tag5, align 4
  %conv6 = zext i8 %5 to i32
  %call.i17 = tail call noundef nonnull align 8 dereferenceable(8) ptr @_ZNSolsEi(ptr noundef nonnull align 8 dereferenceable(8) %.pr, i32 noundef %conv6)
  br label %return

if.end8:                                          ; preds = %if.end
  %call10 = tail call noundef zeroext i1 @_ZN4absl13cord_internal12CordRepBtree7IsValidEPKS1_b(ptr noundef nonnull %0, i1 noundef zeroext false)
  %6 = load ptr, ptr %arg, align 8
  br i1 %call10, label %if.end14, label %if.then11

if.then11:                                        ; preds = %if.end8
  %stream_.i18 = getelementptr inbounds i8, ptr %result_listener, i64 8
  %7 = load ptr, ptr %stream_.i18, align 8
  tail call void @_ZN4absl13cord_internal12CordRepBtree4DumpEPKNS0_7CordRepESt17basic_string_viewIcSt11char_traitsIcEEbRSo(ptr noundef %6, i64 25, ptr nonnull @.str.192, i1 noundef zeroext false, ptr noundef nonnull align 8 dereferenceable(8) %7)
  br label %return

if.end14:                                         ; preds = %if.end8
  %storage.i = getelementptr inbounds i8, ptr %6, i64 13
  %8 = load i8, ptr %storage.i, align 1
  %conv.i = zext i8 %8 to i32
  %height = getelementptr inbounds i8, ptr %this, i64 8
  %9 = load i32, ptr %height, align 8
  %cmp17.not = icmp eq i32 %9, %conv.i
  br i1 %cmp17.not, label %return, label %if.then18

if.then18:                                        ; preds = %if.end14
  %stream_.i19 = getelementptr inbounds i8, ptr %result_listener, i64 8
  %10 = load ptr, ptr %stream_.i19, align 8
  %cmp.not.i20 = icmp eq ptr %10, null
  br i1 %cmp.not.i20, label %return, label %_ZN7testing19MatchResultListenerlsIA25_cEERS0_RKT_.exit

_ZN7testing19MatchResultListenerlsIA25_cEERS0_RKT_.exit: ; preds = %if.then18
  %call.i22 = tail call noundef nonnull align 8 dereferenceable(8) ptr @_ZStlsISt11char_traitsIcEERSt13basic_ostreamIcT_ES5_PKc(ptr noundef nonnull align 8 dereferenceable(8) %10, ptr noundef nonnull @.str.193)
  %.pr42 = load ptr, ptr %stream_.i19, align 8
  %cmp.not.i24 = icmp eq ptr %.pr42, null
  br i1 %cmp.not.i24, label %return, label %_ZN7testing19MatchResultListenerlsIiEERS0_RKT_.exit27

_ZN7testing19MatchResultListenerlsIiEERS0_RKT_.exit27: ; preds = %_ZN7testing19MatchResultListenerlsIA25_cEERS0_RKT_.exit
  %11 = load i32, ptr %height, align 8
  %call.i26 = tail call noundef nonnull align 8 dereferenceable(8) ptr @_ZNSolsEi(ptr noundef nonnull align 8 dereferenceable(8) %.pr42, i32 noundef %11)
  %.pr44 = load ptr, ptr %stream_.i19, align 8
  %cmp.not.i29 = icmp eq ptr %.pr44, null
  br i1 %cmp.not.i29, label %return, label %_ZN7testing19MatchResultListenerlsIA7_cEERS0_RKT_.exit

_ZN7testing19MatchResultListenerlsIA7_cEERS0_RKT_.exit: ; preds = %_ZN7testing19MatchResultListenerlsIiEERS0_RKT_.exit27
  %call.i31 = tail call noundef nonnull align 8 dereferenceable(8) ptr @_ZStlsISt11char_traitsIcEERSt13basic_ostreamIcT_ES5_PKc(ptr noundef nonnull align 8 dereferenceable(8) %.pr44, ptr noundef nonnull @.str.194)
  %.pr46.pr = load ptr, ptr %stream_.i19, align 8
  %cmp.not.i35 = icmp eq ptr %.pr46.pr, null
  br i1 %cmp.not.i35, label %return, label %if.then.i36

if.then.i36:                                      ; preds = %_ZN7testing19MatchResultListenerlsIA7_cEERS0_RKT_.exit
  %12 = load ptr, ptr %arg, align 8
  %storage.i32 = getelementptr inbounds i8, ptr %12, i64 13
  %13 = load i8, ptr %storage.i32, align 1
  %conv.i33 = zext i8 %13 to i32
  %call.i37 = tail call noundef nonnull align 8 dereferenceable(8) ptr @_ZNSolsEi(ptr noundef nonnull align 8 dereferenceable(8) %.pr46.pr, i32 noundef %conv.i33)
  br label %return

return:                                           ; preds = %_ZN7testing19MatchResultListenerlsIA25_cEERS0_RKT_.exit, %if.then18, %_ZN7testing19MatchResultListenerlsIiEERS0_RKT_.exit27, %if.then3, %if.then.i36, %_ZN7testing19MatchResultListenerlsIA7_cEERS0_RKT_.exit, %if.then.i16, %_ZN7testing19MatchResultListenerlsIA20_cEERS0_RKT_.exit, %if.then.i, %if.then, %if.end14, %if.then11
  %retval.0 = phi i1 [ false, %if.then11 ], [ true, %if.end14 ], [ false, %if.then ], [ false, %if.then.i ], [ false, %_ZN7testing19MatchResultListenerlsIA20_cEERS0_RKT_.exit ], [ false, %if.then.i16 ], [ false, %_ZN7testing19MatchResultListenerlsIA7_cEERS0_RKT_.exit ], [ false, %if.then.i36 ], [ false, %if.then3 ], [ false, %_ZN7testing19MatchResultListenerlsIiEERS0_RKT_.exit27 ], [ false, %if.then18 ], [ false, %_ZN7testing19MatchResultListenerlsIA25_cEERS0_RKT_.exit ]
  ret i1 %retval.0
}